target datalayout = "e-m:e-p270:32:32-p271:32:32-p272:64:64-i64:64-i128:128-f80:128-n8:16:32:64-S128"
target triple = "x86_64-pc-linux-gnu"

@.str = private unnamed_addr constant [126 x i8] c"generated/home/dtcxzyw/WorkSpace/Projects/compilers/llvm-opt-benchmark/bench/libquic/libquic/boringssl/crypto/x509v3/v3_lib.c\00", align 1

; Function Attrs: nounwind uwtable
define hidden i32 @X509V3_add1_i2d(ptr noundef %0, i32 noundef %1, ptr noundef %2, i32 noundef %3, i64 noundef %4) #0 {
  %6 = alloca i32, align 4
  %7 = alloca ptr, align 8
  %8 = alloca i32, align 4
  %9 = alloca ptr, align 8
  %10 = alloca i32, align 4
  %11 = alloca i64, align 8
  %12 = alloca i32, align 4
  %13 = alloca i32, align 4
  %14 = alloca ptr, align 8
  %15 = alloca ptr, align 8
  %16 = alloca i64, align 8
  %17 = alloca i32, align 4
  store ptr %0, ptr %7, align 8, !tbaa !49
  store i32 %1, ptr %8, align 4, !tbaa !20
  store ptr %2, ptr %9, align 8, !tbaa !23
  store i32 %3, ptr %10, align 4, !tbaa !20
  store i64 %4, ptr %11, align 8, !tbaa !21
  call void @llvm.lifetime.start.p0(i64 4, ptr %12) #7
  store i32 -1, ptr %12, align 4, !tbaa !20
  call void @llvm.lifetime.start.p0(i64 4, ptr %13) #7
  call void @llvm.lifetime.start.p0(i64 8, ptr %14) #7
  call void @llvm.lifetime.start.p0(i64 8, ptr %15) #7
  call void @llvm.lifetime.start.p0(i64 8, ptr %16) #7
  %18 = load i64, ptr %11, align 8, !tbaa !21
  %19 = and i64 %18, 15
  store i64 %19, ptr %16, align 8, !tbaa !21
  %20 = load i64, ptr %16, align 8, !tbaa !21
  %21 = icmp ne i64 %20, 1
  br i1 %21, label %22, label %27

22:                                               ; preds = %5
  %23 = load ptr, ptr %7, align 8, !tbaa !49
  %24 = load ptr, ptr %23, align 8, !tbaa !44
  %25 = load i32, ptr %8, align 4, !tbaa !20
  %26 = call i32 @X509v3_get_ext_by_NID(ptr noundef %24, i32 noundef %25, i32 noundef -1)
  store i32 %26, ptr %12, align 4, !tbaa !20
  br label %27

27:                                               ; preds = %22, %5
  %28 = load i32, ptr %12, align 4, !tbaa !20
  %29 = icmp sge i32 %28, 0
  br i1 %29, label %30, label %51

30:                                               ; preds = %27
  %31 = load i64, ptr %16, align 8, !tbaa !21
  %32 = icmp eq i64 %31, 4
  br i1 %32, label %33, label %34

33:                                               ; preds = %30
  store i32 1, ptr %6, align 4
  store i32 1, ptr %17, align 4
  br label %110

34:                                               ; preds = %30
  %35 = load i64, ptr %16, align 8, !tbaa !21
  %36 = icmp eq i64 %35, 0
  br i1 %36, label %37, label %38

37:                                               ; preds = %34
  store i32 112, ptr %13, align 4, !tbaa !20
  br label %103

38:                                               ; preds = %34
  %39 = load i64, ptr %16, align 8, !tbaa !21
  %40 = icmp eq i64 %39, 5
  br i1 %40, label %41, label %50

41:                                               ; preds = %38
  %42 = load ptr, ptr %7, align 8, !tbaa !49
  %43 = load ptr, ptr %42, align 8, !tbaa !44
  %44 = load i32, ptr %12, align 4, !tbaa !20
  %45 = sext i32 %44 to i64
  %46 = call ptr @sk_delete(ptr noundef %43, i64 noundef %45)
  %47 = icmp ne ptr %46, null
  br i1 %47, label %49, label %48

48:                                               ; preds = %41
  store i32 -1, ptr %6, align 4
  store i32 1, ptr %17, align 4
  br label %110

49:                                               ; preds = %41
  store i32 1, ptr %6, align 4
  store i32 1, ptr %17, align 4
  br label %110

50:                                               ; preds = %38
  br label %59

51:                                               ; preds = %27
  %52 = load i64, ptr %16, align 8, !tbaa !21
  %53 = icmp eq i64 %52, 3
  br i1 %53, label %57, label %54

54:                                               ; preds = %51
  %55 = load i64, ptr %16, align 8, !tbaa !21
  %56 = icmp eq i64 %55, 5
  br i1 %56, label %57, label %58

57:                                               ; preds = %54, %51
  store i32 114, ptr %13, align 4, !tbaa !20
  br label %103

58:                                               ; preds = %54
  br label %59

59:                                               ; preds = %58, %50
  %60 = load i32, ptr %8, align 4, !tbaa !20
  %61 = load i32, ptr %10, align 4, !tbaa !20
  %62 = load ptr, ptr %9, align 8, !tbaa !23
  %63 = call ptr @X509V3_EXT_i2d(i32 noundef %60, i32 noundef %61, ptr noundef %62)
  store ptr %63, ptr %14, align 8, !tbaa !26
  %64 = load ptr, ptr %14, align 8, !tbaa !26
  %65 = icmp ne ptr %64, null
  br i1 %65, label %67, label %66

66:                                               ; preds = %59
  call void @ERR_put_error(i32 noundef 20, i32 noundef 0, i32 noundef 109, ptr noundef @.str, i32 noundef 338)
  store i32 0, ptr %6, align 4
  store i32 1, ptr %17, align 4
  br label %110

67:                                               ; preds = %59
  %68 = load i32, ptr %12, align 4, !tbaa !20
  %69 = icmp sge i32 %68, 0
  br i1 %69, label %70, label %86

70:                                               ; preds = %67
  %71 = load ptr, ptr %7, align 8, !tbaa !49
  %72 = load ptr, ptr %71, align 8, !tbaa !44
  %73 = load i32, ptr %12, align 4, !tbaa !20
  %74 = sext i32 %73 to i64
  %75 = call ptr @sk_value(ptr noundef %72, i64 noundef %74)
  store ptr %75, ptr %15, align 8, !tbaa !26
  %76 = load ptr, ptr %15, align 8, !tbaa !26
  call void @X509_EXTENSION_free(ptr noundef %76)
  %77 = load ptr, ptr %7, align 8, !tbaa !49
  %78 = load ptr, ptr %77, align 8, !tbaa !44
  %79 = load i32, ptr %12, align 4, !tbaa !20
  %80 = sext i32 %79 to i64
  %81 = load ptr, ptr %14, align 8, !tbaa !26
  %82 = call ptr @sk_set(ptr noundef %78, i64 noundef %80, ptr noundef %81)
  %83 = icmp ne ptr %82, null
  br i1 %83, label %85, label %84

84:                                               ; preds = %70
  store i32 -1, ptr %6, align 4
  store i32 1, ptr %17, align 4
  br label %110

85:                                               ; preds = %70
  store i32 1, ptr %6, align 4
  store i32 1, ptr %17, align 4
  br label %110

86:                                               ; preds = %67
  %87 = load ptr, ptr %7, align 8, !tbaa !49
  %88 = load ptr, ptr %87, align 8, !tbaa !44
  %89 = icmp ne ptr %88, null
  br i1 %89, label %95, label %90

90:                                               ; preds = %86
  %91 = call ptr @sk_new_null()
  %92 = load ptr, ptr %7, align 8, !tbaa !49
  store ptr %91, ptr %92, align 8, !tbaa !44
  %93 = icmp ne ptr %91, null
  br i1 %93, label %95, label %94

94:                                               ; preds = %90
  store i32 -1, ptr %6, align 4
  store i32 1, ptr %17, align 4
  br label %110

95:                                               ; preds = %90, %86
  %96 = load ptr, ptr %7, align 8, !tbaa !49
  %97 = load ptr, ptr %96, align 8, !tbaa !44
  %98 = load ptr, ptr %14, align 8, !tbaa !26
  %99 = call i64 @sk_push(ptr noundef %97, ptr noundef %98)
  %100 = icmp ne i64 %99, 0
  br i1 %100, label %102, label %101

101:                                              ; preds = %95
  store i32 -1, ptr %6, align 4
  store i32 1, ptr %17, align 4
  br label %110

102:                                              ; preds = %95
  store i32 1, ptr %6, align 4
  store i32 1, ptr %17, align 4
  br label %110

103:                                              ; preds = %57, %37
  %104 = load i64, ptr %11, align 8, !tbaa !21
  %105 = and i64 %104, 16
  %106 = icmp ne i64 %105, 0
  br i1 %106, label %109, label %107

107:                                              ; preds = %103
  %108 = load i32, ptr %13, align 4, !tbaa !20
  call void @ERR_put_error(i32 noundef 20, i32 noundef 0, i32 noundef %108, ptr noundef @.str, i32 noundef 360)
  br label %109

109:                                              ; preds = %107, %103
  store i32 0, ptr %6, align 4
  store i32 1, ptr %17, align 4
  br label %110

110:                                              ; preds = %109, %102, %101, %94, %85, %84, %66, %49, %48, %33
  call void @llvm.lifetime.end.p0(i64 8, ptr %16) #7
  call void @llvm.lifetime.end.p0(i64 8, ptr %15) #7
  call void @llvm.lifetime.end.p0(i64 8, ptr %14) #7
  call void @llvm.lifetime.end.p0(i64 4, ptr %13) #7
  call void @llvm.lifetime.end.p0(i64 4, ptr %12) #7
  %111 = load i32, ptr %6, align 4
  ret i32 %111
}