; Function Attrs: nounwind uwtable
define hidden range(i32 -1, 2) i32 @X509V3_add1_i2d(ptr noundef captures(none) %0, i32 noundef %1, ptr noundef %2, i32 noundef %3, i64 noundef %4) local_unnamed_addr #0 {
  %6 = and i64 %4, 15
  %.not = icmp eq i64 %6, 1
  br i1 %.not, label %.thread48, label %7

7:                                                ; preds = %5
  %8 = load ptr, ptr %0, align 8, !tbaa !41
  %9 = tail call i32 @X509v3_get_ext_by_NID(ptr noundef %8, i32 noundef %1, i32 noundef -1) #10
  %10 = icmp sgt i32 %9, -1
  br i1 %10, label %11, label %16

11:                                               ; preds = %7
  switch i64 %6, label %17 [
    i64 4, label %38
    i64 0, label %35
    i64 5, label %12
  ]

12:                                               ; preds = %11
  %13 = load ptr, ptr %0, align 8, !tbaa !41
  %14 = zext nneg i32 %9 to i64
  %15 = tail call ptr @sk_delete(ptr noundef %13, i64 noundef %14) #10
  %.not39 = icmp eq ptr %15, null
  %. = select i1 %.not39, i32 -1, i32 1
  br label %38

16:                                               ; preds = %7
  switch i64 %6, label %.thread [
    i64 5, label %35
    i64 3, label %35
  ]

17:                                               ; preds = %11
  %18 = tail call ptr @X509V3_EXT_i2d(i32 noundef %1, i32 noundef %3, ptr noundef %2) #10
  %.not34 = icmp eq ptr %18, null
  br i1 %.not34, label %21, label %22

.thread:                                          ; preds = %16
  %19 = tail call ptr @X509V3_EXT_i2d(i32 noundef %1, i32 noundef %3, ptr noundef %2) #10
  %.not3454 = icmp eq ptr %19, null
  br i1 %.not3454, label %21, label %.thread52

.thread48:                                        ; preds = %5
  %20 = tail call ptr @X509V3_EXT_i2d(i32 noundef %1, i32 noundef %3, ptr noundef %2) #10
  %.not3450 = icmp eq ptr %20, null
  br i1 %.not3450, label %21, label %.thread52

21:                                               ; preds = %.thread, %.thread48, %17
  tail call void @ERR_put_error(i32 noundef 20, i32 noundef 0, i32 noundef 109, ptr noundef nonnull @.str, i32 noundef 338) #10
  br label %38

22:                                               ; preds = %17
  %23 = load ptr, ptr %0, align 8, !tbaa !41
  %24 = zext nneg i32 %9 to i64
  %25 = tail call ptr @sk_value(ptr noundef %23, i64 noundef %24) #10
  tail call void @X509_EXTENSION_free(ptr noundef %25) #10
  %26 = load ptr, ptr %0, align 8, !tbaa !41
  %27 = tail call ptr @sk_set(ptr noundef %26, i64 noundef %24, ptr noundef nonnull %18) #10
  %.not38 = icmp eq ptr %27, null
  %.41 = select i1 %.not38, i32 -1, i32 1
  br label %38

.thread52:                                        ; preds = %.thread, %.thread48
  %28 = phi ptr [ %20, %.thread48 ], [ %19, %.thread ]
  %29 = load ptr, ptr %0, align 8, !tbaa !41
  %.not35 = icmp eq ptr %29, null
  br i1 %.not35, label %30, label %32

30:                                               ; preds = %.thread52
  %31 = tail call ptr @sk_new_null() #10
  store ptr %31, ptr %0, align 8, !tbaa !41
  %.not36 = icmp eq ptr %31, null
  br i1 %.not36, label %38, label %32

32:                                               ; preds = %30, %.thread52
  %33 = phi ptr [ %31, %30 ], [ %29, %.thread52 ]
  %34 = tail call i64 @sk_push(ptr noundef nonnull %33, ptr noundef nonnull %28) #10
  %.not37 = icmp eq i64 %34, 0
  %.42 = select i1 %.not37, i32 -1, i32 1
  br label %38

35:                                               ; preds = %16, %16, %11
  %.031 = phi i32 [ 112, %11 ], [ 114, %16 ], [ 114, %16 ]
  %36 = and i64 %4, 16
  %.not40 = icmp eq i64 %36, 0
  br i1 %.not40, label %37, label %38

37:                                               ; preds = %35
  tail call void @ERR_put_error(i32 noundef 20, i32 noundef 0, i32 noundef %.031, ptr noundef nonnull @.str, i32 noundef 360) #10
  br label %38

38:                                               ; preds = %35, %37, %32, %30, %22, %12, %11, %21
  %.0 = phi i32 [ 0, %21 ], [ 1, %11 ], [ %., %12 ], [ %.41, %22 ], [ -1, %30 ], [ %.42, %32 ], [ 0, %37 ], [ 0, %35 ]
  ret i32 %.0
}